target datalayout = "e-m:e-p270:32:32-p271:32:32-p272:64:64-i64:64-i128:128-f80:128-n8:16:32:64-S128"
target triple = "x86_64-pc-linux-gnu"

%"class.llvm::APInt" = type <{ %union.anon, i32, [4 x i8] }>
%union.anon = type { i64 }
%"class.llvm::reassociate::XorOpnd" = type <{ ptr, ptr, %"class.llvm::APInt", i32, i8, [3 x i8] }>
%"struct.__gnu_cxx::__ops::_Iter_comp_iter.351" = type { i8 }
%"struct.__gnu_cxx::__ops::_Val_comp_iter.355" = type { i8 }

; Function Attrs: mustprogress nounwind uwtable
define linkonce_odr hidden noundef ptr @_ZNSt20__copy_move_backwardILb1ELb1ESt26random_access_iterator_tagE13__copy_move_bIPN4llvm11reassociate7XorOpndEEEPT_PKS7_SA_S8_(ptr noundef %0, ptr noundef %1, ptr noundef %2) #1 comdat align 2 {
  %4 = alloca ptr, align 8
  %5 = alloca ptr, align 8
  %6 = alloca ptr, align 8
  %7 = alloca i64, align 8
  store ptr %0, ptr %4, align 8
  store ptr %1, ptr %5, align 8
  store ptr %2, ptr %6, align 8
  %8 = load ptr, ptr %5, align 8
  %9 = load ptr, ptr %4, align 8
  %10 = ptrtoint ptr %8 to i64
  %11 = ptrtoint ptr %9 to i64
  %12 = sub i64 %10, %11
  %13 = sdiv exact i64 %12, 8
  store i64 %13, ptr %7, align 8
  %14 = load i64, ptr %7, align 8
  %15 = icmp ne i64 %14, 0
  br i1 %15, label %16, label %24

16:                                               ; preds = %3
  %17 = load ptr, ptr %6, align 8
  %18 = load i64, ptr %7, align 8
  %19 = sub i64 0, %18
  %20 = getelementptr inbounds ptr, ptr %17, i64 %19
  %21 = load ptr, ptr %4, align 8
  %22 = load i64, ptr %7, align 8
  %23 = mul i64 8, %22
  call void @llvm.memmove.p0.p0.i64(ptr align 8 %20, ptr align 8 %21, i64 %23, i1 false)
  br label %24

24:                                               ; preds = %16, %3
  %25 = load ptr, ptr %6, align 8
  %26 = load i64, ptr %7, align 8
  %27 = sub i64 0, %26
  %28 = getelementptr inbounds ptr, ptr %25, i64 %27
  ret ptr %28
}

; Function Attrs: mustprogress nounwind uwtable
define linkonce_odr noundef ptr @_ZSt23__copy_move_backward_a2ILb1EPPN4llvm11reassociate7XorOpndES4_ET1_T0_S6_S5_(ptr noundef %0, ptr noundef %1, ptr noundef %2) #1 comdat {
  %4 = alloca ptr, align 8
  %5 = alloca ptr, align 8
  %6 = alloca ptr, align 8
  store ptr %0, ptr %4, align 8
  store ptr %1, ptr %5, align 8
  store ptr %2, ptr %6, align 8
  %7 = load ptr, ptr %4, align 8
  %8 = load ptr, ptr %5, align 8
  %9 = load ptr, ptr %6, align 8
  %10 = call noundef ptr @_ZNSt20__copy_move_backwardILb1ELb1ESt26random_access_iterator_tagE13__copy_move_bIPN4llvm11reassociate7XorOpndEEEPT_PKS7_SA_S8_(ptr noundef %7, ptr noundef %8, ptr noundef %9)
  ret ptr %10
}

; Function Attrs: mustprogress nounwind uwtable
define linkonce_odr noundef ptr @_ZSt12__niter_wrapIPPN4llvm11reassociate7XorOpndEET_RKS5_S5_(ptr noundef nonnull align 8 dereferenceable(8) %0, ptr noundef %1) #1 comdat {
  %3 = alloca ptr, align 8
  %4 = alloca ptr, align 8
  store ptr %0, ptr %3, align 8
  store ptr %1, ptr %4, align 8
  %5 = load ptr, ptr %4, align 8
  ret ptr %5
}

; Function Attrs: mustprogress nounwind uwtable
define linkonce_odr noundef ptr @_ZSt23__copy_move_backward_a1ILb1EPPN4llvm11reassociate7XorOpndES4_ET1_T0_S6_S5_(ptr noundef %0, ptr noundef %1, ptr noundef %2) #1 comdat {
  %4 = alloca ptr, align 8
  %5 = alloca ptr, align 8
  %6 = alloca ptr, align 8
  store ptr %0, ptr %4, align 8
  store ptr %1, ptr %5, align 8
  store ptr %2, ptr %6, align 8
  %7 = load ptr, ptr %4, align 8
  %8 = load ptr, ptr %5, align 8
  %9 = load ptr, ptr %6, align 8
  %10 = call noundef ptr @_ZSt23__copy_move_backward_a2ILb1EPPN4llvm11reassociate7XorOpndES4_ET1_T0_S6_S5_(ptr noundef %7, ptr noundef %8, ptr noundef %9)
  ret ptr %10
}

; Function Attrs: mustprogress nounwind uwtable
define linkonce_odr noundef ptr @_ZSt12__niter_baseIPPN4llvm11reassociate7XorOpndEET_S5_(ptr noundef %0) #1 comdat {
  %2 = alloca ptr, align 8
  store ptr %0, ptr %2, align 8
  %3 = load ptr, ptr %2, align 8
  ret ptr %3
}

; Function Attrs: mustprogress nounwind uwtable
define linkonce_odr hidden noundef i32 @_ZNK4llvm11reassociate7XorOpnd15getSymbolicRankEv(ptr noundef nonnull align 8 dereferenceable(37) %0) #1 comdat align 2 {
  %2 = alloca ptr, align 8
  store ptr %0, ptr %2, align 8
  %3 = load ptr, ptr %2, align 8
  %4 = getelementptr inbounds nuw %"class.llvm::reassociate::XorOpnd", ptr %3, i32 0, i32 3
  %5 = load i32, ptr %4, align 8
  ret i32 %5
}

; Function Attrs: mustprogress nounwind uwtable
define internal noundef zeroext i1 @"_ZN9__gnu_cxx5__ops14_Val_comp_iterIZN4llvm15ReassociatePass11OptimizeXorEPNS2_11InstructionERNS2_15SmallVectorImplINS2_11reassociate10ValueEntryEEEE3$_0EclIPNS7_7XorOpndEPSF_EEbRT_T0_"(ptr noundef nonnull align 1 dereferenceable(1) %0, ptr noundef nonnull align 8 dereferenceable(8) %1, ptr noundef %2) #1 align 2 {
  %4 = alloca ptr, align 8
  %5 = alloca ptr, align 8
  %6 = alloca ptr, align 8
  store ptr %0, ptr %4, align 8
  store ptr %1, ptr %5, align 8
  store ptr %2, ptr %6, align 8
  %7 = load ptr, ptr %4, align 8
  %8 = load ptr, ptr %5, align 8
  %9 = load ptr, ptr %8, align 8
  %10 = load ptr, ptr %6, align 8
  %11 = load ptr, ptr %10, align 8
  %12 = call noundef zeroext i1 @"_ZZN4llvm15ReassociatePass11OptimizeXorEPNS_11InstructionERNS_15SmallVectorImplINS_11reassociate10ValueEntryEEEENK3$_0clEPNS4_7XorOpndESA_"(ptr noundef nonnull align 1 dereferenceable(1) %7, ptr noundef %9, ptr noundef %11)
  ret i1 %12
}

; Function Attrs: mustprogress nounwind uwtable
define internal void @"_ZN9__gnu_cxx5__ops14_Val_comp_iterIZN4llvm15ReassociatePass11OptimizeXorEPNS2_11InstructionERNS2_15SmallVectorImplINS2_11reassociate10ValueEntryEEEE3$_0EC2EONS0_15_Iter_comp_iterISB_EE"(ptr noundef nonnull align 1 dereferenceable(1) %0, ptr noundef nonnull align 1 dereferenceable(1) %1) unnamed_addr #1 align 2 {
  %3 = alloca ptr, align 8
  %4 = alloca ptr, align 8
  store ptr %0, ptr %3, align 8
  store ptr %1, ptr %4, align 8
  ret void
}

; Function Attrs: mustprogress nounwind uwtable
define linkonce_odr noundef ptr @_ZSt22__copy_move_backward_aILb1EPPN4llvm11reassociate7XorOpndES4_ET1_T0_S6_S5_(ptr noundef %0, ptr noundef %1, ptr noundef %2) #1 comdat {
  %4 = alloca ptr, align 8
  %5 = alloca ptr, align 8
  %6 = alloca ptr, align 8
  store ptr %0, ptr %4, align 8
  store ptr %1, ptr %5, align 8
  store ptr %2, ptr %6, align 8
  %7 = load ptr, ptr %4, align 8
  %8 = call noundef ptr @_ZSt12__niter_baseIPPN4llvm11reassociate7XorOpndEET_S5_(ptr noundef %7) #2
  %9 = load ptr, ptr %5, align 8
  %10 = call noundef ptr @_ZSt12__niter_baseIPPN4llvm11reassociate7XorOpndEET_S5_(ptr noundef %9) #2
  %11 = load ptr, ptr %6, align 8
  %12 = call noundef ptr @_ZSt12__niter_baseIPPN4llvm11reassociate7XorOpndEET_S5_(ptr noundef %11) #2
  %13 = call noundef ptr @_ZSt23__copy_move_backward_a1ILb1EPPN4llvm11reassociate7XorOpndES4_ET1_T0_S6_S5_(ptr noundef %8, ptr noundef %10, ptr noundef %12)
  %14 = call noundef ptr @_ZSt12__niter_wrapIPPN4llvm11reassociate7XorOpndEET_RKS5_S5_(ptr noundef nonnull align 8 dereferenceable(8) %6, ptr noundef %13)
  ret ptr %14
}

; Function Attrs: mustprogress nounwind uwtable
define linkonce_odr noundef ptr @_ZSt12__miter_baseIPPN4llvm11reassociate7XorOpndEET_S5_(ptr noundef %0) #1 comdat {
  %2 = alloca ptr, align 8
  store ptr %0, ptr %2, align 8
  %3 = load ptr, ptr %2, align 8
  ret ptr %3
}

; Function Attrs: mustprogress nounwind uwtable
define internal noundef zeroext i1 @"_ZZN4llvm15ReassociatePass11OptimizeXorEPNS_11InstructionERNS_15SmallVectorImplINS_11reassociate10ValueEntryEEEENK3$_0clEPNS4_7XorOpndESA_"(ptr noundef nonnull align 1 dereferenceable(1) %0, ptr noundef %1, ptr noundef %2) #1 align 2 {
  %4 = alloca ptr, align 8
  %5 = alloca ptr, align 8
  %6 = alloca ptr, align 8
  store ptr %0, ptr %4, align 8
  store ptr %1, ptr %5, align 8
  store ptr %2, ptr %6, align 8
  %7 = load ptr, ptr %5, align 8
  %8 = call noundef i32 @_ZNK4llvm11reassociate7XorOpnd15getSymbolicRankEv(ptr noundef nonnull align 8 dereferenceable(37) %7)
  %9 = load ptr, ptr %6, align 8
  %10 = call noundef i32 @_ZNK4llvm11reassociate7XorOpnd15getSymbolicRankEv(ptr noundef nonnull align 8 dereferenceable(37) %9)
  %11 = icmp ult i32 %8, %10
  ret i1 %11
}

; Function Attrs: mustprogress nounwind uwtable
define internal void @"_ZSt25__unguarded_linear_insertIPPN4llvm11reassociate7XorOpndEN9__gnu_cxx5__ops14_Val_comp_iterIZNS0_15ReassociatePass11OptimizeXorEPNS0_11InstructionERNS0_15SmallVectorImplINS1_10ValueEntryEEEE3$_0EEEvT_T0_"(ptr noundef %0) #1 {
  %2 = alloca %"struct.__gnu_cxx::__ops::_Val_comp_iter.355", align 1
  %3 = alloca ptr, align 8
  %4 = alloca ptr, align 8
  %5 = alloca ptr, align 8
  store ptr %0, ptr %3, align 8
  %6 = load ptr, ptr %3, align 8
  %7 = load ptr, ptr %6, align 8
  store ptr %7, ptr %4, align 8
  %8 = load ptr, ptr %3, align 8
  store ptr %8, ptr %5, align 8
  %9 = load ptr, ptr %5, align 8
  %10 = getelementptr inbounds ptr, ptr %9, i32 -1
  store ptr %10, ptr %5, align 8
  br label %11

11:                                               ; preds = %14, %1
  %12 = load ptr, ptr %5, align 8
  %13 = call noundef zeroext i1 @"_ZN9__gnu_cxx5__ops14_Val_comp_iterIZN4llvm15ReassociatePass11OptimizeXorEPNS2_11InstructionERNS2_15SmallVectorImplINS2_11reassociate10ValueEntryEEEE3$_0EclIPNS7_7XorOpndEPSF_EEbRT_T0_"(ptr noundef nonnull align 1 dereferenceable(1) %2, ptr noundef nonnull align 8 dereferenceable(8) %4, ptr noundef %12)
  br i1 %13, label %14, label %21

14:                                               ; preds = %11
  %15 = load ptr, ptr %5, align 8
  %16 = load ptr, ptr %15, align 8
  %17 = load ptr, ptr %3, align 8
  store ptr %16, ptr %17, align 8
  %18 = load ptr, ptr %5, align 8
  store ptr %18, ptr %3, align 8
  %19 = load ptr, ptr %5, align 8
  %20 = getelementptr inbounds ptr, ptr %19, i32 -1
  store ptr %20, ptr %5, align 8
  br label %11, !llvm.loop !113

21:                                               ; preds = %11
  %22 = load ptr, ptr %4, align 8
  %23 = load ptr, ptr %3, align 8
  store ptr %22, ptr %23, align 8
  ret void
}

; Function Attrs: mustprogress nounwind uwtable
define internal void @"_ZN9__gnu_cxx5__ops15__val_comp_iterIZN4llvm15ReassociatePass11OptimizeXorEPNS2_11InstructionERNS2_15SmallVectorImplINS2_11reassociate10ValueEntryEEEE3$_0EENS0_14_Val_comp_iterIT_EENS0_15_Iter_comp_iterISD_EE"() #1 {
  %1 = alloca %"struct.__gnu_cxx::__ops::_Val_comp_iter.355", align 1
  %2 = alloca %"struct.__gnu_cxx::__ops::_Iter_comp_iter.351", align 1
  call void @"_ZN9__gnu_cxx5__ops14_Val_comp_iterIZN4llvm15ReassociatePass11OptimizeXorEPNS2_11InstructionERNS2_15SmallVectorImplINS2_11reassociate10ValueEntryEEEE3$_0EC2EONS0_15_Iter_comp_iterISB_EE"(ptr noundef nonnull align 1 dereferenceable(1) %1, ptr noundef nonnull align 1 dereferenceable(1) %2)
  ret void
}

; Function Attrs: mustprogress nounwind uwtable
define linkonce_odr noundef ptr @_ZSt13move_backwardIPPN4llvm11reassociate7XorOpndES4_ET0_T_S6_S5_(ptr noundef %0, ptr noundef %1, ptr noundef %2) #1 comdat {
  %4 = alloca ptr, align 8
  %5 = alloca ptr, align 8
  %6 = alloca ptr, align 8
  store ptr %0, ptr %4, align 8
  store ptr %1, ptr %5, align 8
  store ptr %2, ptr %6, align 8
  %7 = load ptr, ptr %4, align 8
  %8 = call noundef ptr @_ZSt12__miter_baseIPPN4llvm11reassociate7XorOpndEET_S5_(ptr noundef %7)
  %9 = load ptr, ptr %5, align 8
  %10 = call noundef ptr @_ZSt12__miter_baseIPPN4llvm11reassociate7XorOpndEET_S5_(ptr noundef %9)
  %11 = load ptr, ptr %6, align 8
  %12 = call noundef ptr @_ZSt22__copy_move_backward_aILb1EPPN4llvm11reassociate7XorOpndES4_ET1_T0_S6_S5_(ptr noundef %8, ptr noundef %10, ptr noundef %11)
  ret ptr %12
}

; Function Attrs: mustprogress nounwind uwtable
define internal noundef zeroext i1 @"_ZN9__gnu_cxx5__ops15_Iter_comp_iterIZN4llvm15ReassociatePass11OptimizeXorEPNS2_11InstructionERNS2_15SmallVectorImplINS2_11reassociate10ValueEntryEEEE3$_0EclIPPNS7_7XorOpndESG_EEbT_T0_"(ptr noundef nonnull align 1 dereferenceable(1) %0, ptr noundef %1, ptr noundef %2) #1 align 2 {
  %4 = alloca ptr, align 8
  %5 = alloca ptr, align 8
  %6 = alloca ptr, align 8
  store ptr %0, ptr %4, align 8
  store ptr %1, ptr %5, align 8
  store ptr %2, ptr %6, align 8
  %7 = load ptr, ptr %4, align 8
  %8 = load ptr, ptr %5, align 8
  %9 = load ptr, ptr %8, align 8
  %10 = load ptr, ptr %6, align 8
  %11 = load ptr, ptr %10, align 8
  %12 = call noundef zeroext i1 @"_ZZN4llvm15ReassociatePass11OptimizeXorEPNS_11InstructionERNS_15SmallVectorImplINS_11reassociate10ValueEntryEEEENK3$_0clEPNS4_7XorOpndESA_"(ptr noundef nonnull align 1 dereferenceable(1) %7, ptr noundef %9, ptr noundef %11)
  ret i1 %12
}

; Function Attrs: mustprogress nounwind uwtable
define internal void @"_ZSt16__insertion_sortIPPN4llvm11reassociate7XorOpndEN9__gnu_cxx5__ops15_Iter_comp_iterIZNS0_15ReassociatePass11OptimizeXorEPNS0_11InstructionERNS0_15SmallVectorImplINS1_10ValueEntryEEEE3$_0EEEvT_SH_T0_"(ptr noundef %0, ptr noundef %1) #1 {
  %3 = alloca %"struct.__gnu_cxx::__ops::_Iter_comp_iter.351", align 1
  %4 = alloca ptr, align 8
  %5 = alloca ptr, align 8
  %6 = alloca ptr, align 8
  %7 = alloca ptr, align 8
  %8 = alloca %"struct.__gnu_cxx::__ops::_Iter_comp_iter.351", align 1
  store ptr %0, ptr %4, align 8
  store ptr %1, ptr %5, align 8
  %9 = load ptr, ptr %4, align 8
  %10 = load ptr, ptr %5, align 8
  %11 = icmp eq ptr %9, %10
  br i1 %11, label %12, label %13

12:                                               ; preds = %2
  br label %40

13:                                               ; preds = %2
  %14 = load ptr, ptr %4, align 8
  %15 = getelementptr inbounds ptr, ptr %14, i64 1
  store ptr %15, ptr %6, align 8
  br label %16

16:                                               ; preds = %37, %13
  %17 = load ptr, ptr %6, align 8
  %18 = load ptr, ptr %5, align 8
  %19 = icmp ne ptr %17, %18
  br i1 %19, label %20, label %40

20:                                               ; preds = %16
  %21 = load ptr, ptr %6, align 8
  %22 = load ptr, ptr %4, align 8
  %23 = call noundef zeroext i1 @"_ZN9__gnu_cxx5__ops15_Iter_comp_iterIZN4llvm15ReassociatePass11OptimizeXorEPNS2_11InstructionERNS2_15SmallVectorImplINS2_11reassociate10ValueEntryEEEE3$_0EclIPPNS7_7XorOpndESG_EEbT_T0_"(ptr noundef nonnull align 1 dereferenceable(1) %3, ptr noundef %21, ptr noundef %22)
  br i1 %23, label %24, label %34

24:                                               ; preds = %20
  %25 = load ptr, ptr %6, align 8
  %26 = load ptr, ptr %25, align 8
  store ptr %26, ptr %7, align 8
  %27 = load ptr, ptr %4, align 8
  %28 = load ptr, ptr %6, align 8
  %29 = load ptr, ptr %6, align 8
  %30 = getelementptr inbounds ptr, ptr %29, i64 1
  %31 = call noundef ptr @_ZSt13move_backwardIPPN4llvm11reassociate7XorOpndES4_ET0_T_S6_S5_(ptr noundef %27, ptr noundef %28, ptr noundef %30)
  %32 = load ptr, ptr %7, align 8
  %33 = load ptr, ptr %4, align 8
  store ptr %32, ptr %33, align 8
  br label %36

34:                                               ; preds = %20
  %35 = load ptr, ptr %6, align 8
  call void @llvm.memcpy.p0.p0.i64(ptr align 1 %8, ptr align 1 %3, i64 1, i1 false)
  call void @"_ZN9__gnu_cxx5__ops15__val_comp_iterIZN4llvm15ReassociatePass11OptimizeXorEPNS2_11InstructionERNS2_15SmallVectorImplINS2_11reassociate10ValueEntryEEEE3$_0EENS0_14_Val_comp_iterIT_EENS0_15_Iter_comp_iterISD_EE"()
  call void @"_ZSt25__unguarded_linear_insertIPPN4llvm11reassociate7XorOpndEN9__gnu_cxx5__ops14_Val_comp_iterIZNS0_15ReassociatePass11OptimizeXorEPNS0_11InstructionERNS0_15SmallVectorImplINS1_10ValueEntryEEEE3$_0EEEvT_T0_"(ptr noundef %35)
  br label %36

36:                                               ; preds = %34, %24
  br label %37

37:                                               ; preds = %36
  %38 = load ptr, ptr %6, align 8
  %39 = getelementptr inbounds ptr, ptr %38, i32 1
  store ptr %39, ptr %6, align 8
  br label %16, !llvm.loop !112

40:                                               ; preds = %16, %12
  ret void
}

; Function Attrs: mustprogress nounwind uwtable
define internal void @"_ZSt21__inplace_stable_sortIPPN4llvm11reassociate7XorOpndEN9__gnu_cxx5__ops15_Iter_comp_iterIZNS0_15ReassociatePass11OptimizeXorEPNS0_11InstructionERNS0_15SmallVectorImplINS1_10ValueEntryEEEE3$_0EEEvT_SH_T0_"(ptr noundef %0, ptr noundef %1) #1 {
  %3 = alloca %"struct.__gnu_cxx::__ops::_Iter_comp_iter.351", align 1
  %4 = alloca ptr, align 8
  %5 = alloca ptr, align 8
  %6 = alloca %"struct.__gnu_cxx::__ops::_Iter_comp_iter.351", align 1
  %7 = alloca ptr, align 8
  %8 = alloca %"struct.__gnu_cxx::__ops::_Iter_comp_iter.351", align 1
  %9 = alloca %"struct.__gnu_cxx::__ops::_Iter_comp_iter.351", align 1
  %10 = alloca %"struct.__gnu_cxx::__ops::_Iter_comp_iter.351", align 1
  store ptr %0, ptr %4, align 8
  store ptr %1, ptr %5, align 8
  %11 = load ptr, ptr %5, align 8
  %12 = load ptr, ptr %4, align 8
  %13 = ptrtoint ptr %11 to i64
  %14 = ptrtoint ptr %12 to i64
  %15 = sub i64 %13, %14
  %16 = sdiv exact i64 %15, 8
  %17 = icmp slt i64 %16, 15
  br i1 %17, label %18, label %21

18:                                               ; preds = %2
  %19 = load ptr, ptr %4, align 8
  %20 = load ptr, ptr %5, align 8
  call void @llvm.memcpy.p0.p0.i64(ptr align 1 %6, ptr align 1 %3, i64 1, i1 false)
  call void @"_ZSt16__insertion_sortIPPN4llvm11reassociate7XorOpndEN9__gnu_cxx5__ops15_Iter_comp_iterIZNS0_15ReassociatePass11OptimizeXorEPNS0_11InstructionERNS0_15SmallVectorImplINS1_10ValueEntryEEEE3$_0EEEvT_SH_T0_"(ptr noundef %19, ptr noundef %20)
  br label %50

21:                                               ; preds = %2
  %22 = load ptr, ptr %4, align 8
  %23 = load ptr, ptr %5, align 8
  %24 = load ptr, ptr %4, align 8
  %25 = ptrtoint ptr %23 to i64
  %26 = ptrtoint ptr %24 to i64
  %27 = sub i64 %25, %26
  %28 = sdiv exact i64 %27, 8
  %29 = sdiv i64 %28, 2
  %30 = getelementptr inbounds ptr, ptr %22, i64 %29
  store ptr %30, ptr %7, align 8
  %31 = load ptr, ptr %4, align 8
  %32 = load ptr, ptr %7, align 8
  call void @llvm.memcpy.p0.p0.i64(ptr align 1 %8, ptr align 1 %3, i64 1, i1 false)
  call void @"_ZSt21__inplace_stable_sortIPPN4llvm11reassociate7XorOpndEN9__gnu_cxx5__ops15_Iter_comp_iterIZNS0_15ReassociatePass11OptimizeXorEPNS0_11InstructionERNS0_15SmallVectorImplINS1_10ValueEntryEEEE3$_0EEEvT_SH_T0_"(ptr noundef %31, ptr noundef %32)
  %33 = load ptr, ptr %7, align 8
  %34 = load ptr, ptr %5, align 8
  call void @llvm.memcpy.p0.p0.i64(ptr align 1 %9, ptr align 1 %3, i64 1, i1 false)
  call void @"_ZSt21__inplace_stable_sortIPPN4llvm11reassociate7XorOpndEN9__gnu_cxx5__ops15_Iter_comp_iterIZNS0_15ReassociatePass11OptimizeXorEPNS0_11InstructionERNS0_15SmallVectorImplINS1_10ValueEntryEEEE3$_0EEEvT_SH_T0_"(ptr noundef %33, ptr noundef %34)
  %35 = load ptr, ptr %4, align 8
  %36 = load ptr, ptr %7, align 8
  %37 = load ptr, ptr %5, align 8
  %38 = load ptr, ptr %7, align 8
  %39 = load ptr, ptr %4, align 8
  %40 = ptrtoint ptr %38 to i64
  %41 = ptrtoint ptr %39 to i64
  %42 = sub i64 %40, %41
  %43 = sdiv exact i64 %42, 8
  %44 = load ptr, ptr %5, align 8
  %45 = load ptr, ptr %7, align 8
  %46 = ptrtoint ptr %44 to i64
  %47 = ptrtoint ptr %45 to i64
  %48 = sub i64 %46, %47
  %49 = sdiv exact i64 %48, 8
  call void @llvm.memcpy.p0.p0.i64(ptr align 1 %10, ptr align 1 %3, i64 1, i1 false)
  call void @"_ZSt22__merge_without_bufferIPPN4llvm11reassociate7XorOpndElN9__gnu_cxx5__ops15_Iter_comp_iterIZNS0_15ReassociatePass11OptimizeXorEPNS0_11InstructionERNS0_15SmallVectorImplINS1_10ValueEntryEEEE3$_0EEEvT_SH_SH_T0_SI_T1_"(ptr noundef %35, ptr noundef %36, ptr noundef %37, i64 noundef %43, i64 noundef %49)
  br label %50

50:                                               ; preds = %21, %18
  ret void
}