; Function Attrs: mustprogress nounwind uwtable
define internal fastcc void @"_ZSt21__inplace_stable_sortIPPN4llvm11reassociate7XorOpndEN9__gnu_cxx5__ops15_Iter_comp_iterIZNS0_15ReassociatePass11OptimizeXorEPNS0_11InstructionERNS0_15SmallVectorImplINS1_10ValueEntryEEEE3$_0EEEvT_SH_T0_"(ptr noundef %0, ptr noundef %1) unnamed_addr #0 {
  %3 = ptrtoint ptr %1 to i64
  %4 = ptrtoint ptr %0 to i64
  %5 = sub i64 %3, %4
  %6 = ashr exact i64 %5, 3
  %7 = icmp slt i64 %6, 15
  br i1 %7, label %8, label %25

8:                                                ; preds = %2
  %9 = icmp eq ptr %0, %1
  %.017.i = getelementptr inbounds nuw i8, ptr %0, i64 8
  %.not18.i = icmp eq ptr %.017.i, %1
  %or.cond = select i1 %9, i1 true, i1 %.not18.i
  br i1 %or.cond, label %common.ret25, label %.lr.ph.i

.lr.ph.i:                                         ; preds = %8, %"_ZSt25__unguarded_linear_insertIPPN4llvm11reassociate7XorOpndEN9__gnu_cxx5__ops14_Val_comp_iterIZNS0_15ReassociatePass11OptimizeXorEPNS0_11InstructionERNS0_15SmallVectorImplINS1_10ValueEntryEEEE3$_0EEEvT_T0_.exit.i"
  %.020.i = phi ptr [ %.0.i, %"_ZSt25__unguarded_linear_insertIPPN4llvm11reassociate7XorOpndEN9__gnu_cxx5__ops14_Val_comp_iterIZNS0_15ReassociatePass11OptimizeXorEPNS0_11InstructionERNS0_15SmallVectorImplINS1_10ValueEntryEEEE3$_0EEEvT_T0_.exit.i" ], [ %.017.i, %8 ]
  %.pn19.i = phi ptr [ %.020.i, %"_ZSt25__unguarded_linear_insertIPPN4llvm11reassociate7XorOpndEN9__gnu_cxx5__ops14_Val_comp_iterIZNS0_15ReassociatePass11OptimizeXorEPNS0_11InstructionERNS0_15SmallVectorImplINS1_10ValueEntryEEEE3$_0EEEvT_T0_.exit.i" ], [ %0, %8 ]
  %.0.val.i = load ptr, ptr %.020.i, align 8
  %.val.i = load ptr, ptr %0, align 8
  %10 = getelementptr i8, ptr %.0.val.i, i64 32
  %.0.val.val.i = load i32, ptr %10, align 8
  %11 = getelementptr i8, ptr %.val.i, i64 32
  %.val.val.i = load i32, ptr %11, align 8
  %12 = icmp ult i32 %.0.val.val.i, %.val.val.i
  br i1 %12, label %13, label %20

13:                                               ; preds = %.lr.ph.i
  %14 = getelementptr inbounds nuw i8, ptr %.pn19.i, i64 16
  %15 = ptrtoint ptr %.020.i to i64
  %16 = sub i64 %15, %4
  %17 = ashr exact i64 %16, 3
  %18 = sub nsw i64 0, %17
  %19 = getelementptr inbounds ptr, ptr %14, i64 %18
  tail call void @llvm.memmove.p0.p0.i64(ptr noundef nonnull align 8 dereferenceable(1) %19, ptr noundef nonnull align 8 dereferenceable(1) %0, i64 %16, i1 false)
  br label %"_ZSt25__unguarded_linear_insertIPPN4llvm11reassociate7XorOpndEN9__gnu_cxx5__ops14_Val_comp_iterIZNS0_15ReassociatePass11OptimizeXorEPNS0_11InstructionERNS0_15SmallVectorImplINS1_10ValueEntryEEEE3$_0EEEvT_T0_.exit.i"

20:                                               ; preds = %.lr.ph.i
  %.0.val11.i.i = load ptr, ptr %.pn19.i, align 8
  %21 = getelementptr i8, ptr %.0.val11.i.i, i64 32
  %.0.val.val13.i.i = load i32, ptr %21, align 8
  %22 = icmp ult i32 %.0.val.val.i, %.0.val.val13.i.i
  br i1 %22, label %.lr.ph.i.i, label %"_ZSt25__unguarded_linear_insertIPPN4llvm11reassociate7XorOpndEN9__gnu_cxx5__ops14_Val_comp_iterIZNS0_15ReassociatePass11OptimizeXorEPNS0_11InstructionERNS0_15SmallVectorImplINS1_10ValueEntryEEEE3$_0EEEvT_T0_.exit.i"

.lr.ph.i.i:                                       ; preds = %20, %.lr.ph.i.i
  %.0.val16.i.i = phi ptr [ %.0.val.i.i, %.lr.ph.i.i ], [ %.0.val11.i.i, %20 ]
  %.015.i.i = phi ptr [ %.0.i.i, %.lr.ph.i.i ], [ %.pn19.i, %20 ]
  %.0914.i.i = phi ptr [ %.015.i.i, %.lr.ph.i.i ], [ %.020.i, %20 ]
  store ptr %.0.val16.i.i, ptr %.0914.i.i, align 8
  %.0.i.i = getelementptr inbounds i8, ptr %.015.i.i, i64 -8
  %.0.val.i.i = load ptr, ptr %.0.i.i, align 8
  %.val.val.i.i = load i32, ptr %10, align 8
  %23 = getelementptr i8, ptr %.0.val.i.i, i64 32
  %.0.val.val.i.i = load i32, ptr %23, align 8
  %24 = icmp ult i32 %.val.val.i.i, %.0.val.val.i.i
  br i1 %24, label %.lr.ph.i.i, label %"_ZSt25__unguarded_linear_insertIPPN4llvm11reassociate7XorOpndEN9__gnu_cxx5__ops14_Val_comp_iterIZNS0_15ReassociatePass11OptimizeXorEPNS0_11InstructionERNS0_15SmallVectorImplINS1_10ValueEntryEEEE3$_0EEEvT_T0_.exit.i", !llvm.loop !403

"_ZSt25__unguarded_linear_insertIPPN4llvm11reassociate7XorOpndEN9__gnu_cxx5__ops14_Val_comp_iterIZNS0_15ReassociatePass11OptimizeXorEPNS0_11InstructionERNS0_15SmallVectorImplINS1_10ValueEntryEEEE3$_0EEEvT_T0_.exit.i": ; preds = %.lr.ph.i.i, %20, %13
  %.sink.i = phi ptr [ %0, %13 ], [ %.020.i, %20 ], [ %.015.i.i, %.lr.ph.i.i ]
  store ptr %.0.val.i, ptr %.sink.i, align 8
  %.0.i = getelementptr inbounds nuw i8, ptr %.020.i, i64 8
  %.not.i = icmp eq ptr %.0.i, %1
  br i1 %.not.i, label %common.ret25, label %.lr.ph.i, !llvm.loop !404

common.ret25:                                     ; preds = %8, %"_ZSt25__unguarded_linear_insertIPPN4llvm11reassociate7XorOpndEN9__gnu_cxx5__ops14_Val_comp_iterIZNS0_15ReassociatePass11OptimizeXorEPNS0_11InstructionERNS0_15SmallVectorImplINS1_10ValueEntryEEEE3$_0EEEvT_T0_.exit.i", %25
  ret void

25:                                               ; preds = %2
  %26 = lshr i64 %6, 1
  %27 = getelementptr inbounds nuw ptr, ptr %0, i64 %26
  tail call fastcc void @"_ZSt21__inplace_stable_sortIPPN4llvm11reassociate7XorOpndEN9__gnu_cxx5__ops15_Iter_comp_iterIZNS0_15ReassociatePass11OptimizeXorEPNS0_11InstructionERNS0_15SmallVectorImplINS1_10ValueEntryEEEE3$_0EEEvT_SH_T0_"(ptr noundef %0, ptr noundef %27)
  tail call fastcc void @"_ZSt21__inplace_stable_sortIPPN4llvm11reassociate7XorOpndEN9__gnu_cxx5__ops15_Iter_comp_iterIZNS0_15ReassociatePass11OptimizeXorEPNS0_11InstructionERNS0_15SmallVectorImplINS1_10ValueEntryEEEE3$_0EEEvT_SH_T0_"(ptr noundef %27, ptr noundef %1)
  %28 = ptrtoint ptr %27 to i64
  %29 = sub i64 %3, %28
  %30 = ashr exact i64 %29, 3
  tail call fastcc void @"_ZSt22__merge_without_bufferIPPN4llvm11reassociate7XorOpndElN9__gnu_cxx5__ops15_Iter_comp_iterIZNS0_15ReassociatePass11OptimizeXorEPNS0_11InstructionERNS0_15SmallVectorImplINS1_10ValueEntryEEEE3$_0EEEvT_SH_SH_T0_SI_T1_"(ptr noundef %0, ptr noundef %27, ptr noundef %1, i64 noundef %26, i64 noundef %30)
  br label %common.ret25
}